; Function Attrs: mustprogress uwtable
define hidden noundef i32 @_ZN7Imf_3_215Pxr24Compressor8compressEPKciiRS2_(ptr nocapture noundef nonnull readonly align 8 dereferenceable(60) %this, ptr nocapture noundef readonly %inPtr, i32 noundef %inSize, i32 noundef %minY, ptr nocapture noundef nonnull writeonly align 8 dereferenceable(8) %outPtr) unnamed_addr #3 align 2 {
entry:
  %agg.tmp = alloca %"class.Imath_3_2::Box", align 4
  %_minX = getelementptr inbounds i8, ptr %this, i64 48
  %0 = load i32, ptr %_minX, align 8
  %_maxX = getelementptr inbounds i8, ptr %this, i64 52
  %1 = load i32, ptr %_maxX, align 4
  %_numScanLines = getelementptr inbounds i8, ptr %this, i64 20
  %2 = load i32, ptr %_numScanLines, align 4
  %add = add i32 %minY, -1
  %sub = add i32 %add, %2
  %max.i = getelementptr inbounds i8, ptr %agg.tmp, i64 8
  store i32 %0, ptr %agg.tmp, align 4
  %y3.i.i = getelementptr inbounds i8, ptr %agg.tmp, i64 4
  store i32 %minY, ptr %y3.i.i, align 4
  store i32 %1, ptr %max.i, align 4
  %y3.i2.i = getelementptr inbounds i8, ptr %agg.tmp, i64 12
  store i32 %sub, ptr %y3.i2.i, align 4
  %call = call noundef i32 @_ZN7Imf_3_215Pxr24Compressor8compressEPKciN9Imath_3_23BoxINS3_4Vec2IiEEEERS2_(ptr noundef nonnull align 8 dereferenceable(60) %this, ptr noundef %inPtr, i32 noundef %inSize, ptr noundef nonnull %agg.tmp, ptr noundef nonnull align 8 dereferenceable(8) %outPtr)
  ret i32 %call
}